target datalayout = "e-m:e-p270:32:32-p271:32:32-p272:64:64-i64:64-i128:128-f80:128-n8:16:32:64-S128"
target triple = "x86_64-pc-linux-gnu"

%struct.Vec_Int_t_ = type { i32, i32, ptr }

; Function Attrs: nounwind uwtable
define internal ptr @Vec_IntArray(ptr noundef %0) #0 {
  %2 = alloca ptr, align 8
  store ptr %0, ptr %2, align 8
  %3 = load ptr, ptr %2, align 8
  %4 = getelementptr inbounds %struct.Vec_Int_t_, ptr %3, i32 0, i32 2
  %5 = load ptr, ptr %4, align 8
  ret ptr %5
}

; Function Attrs: nounwind uwtable
define internal i32 @Vec_IntSize(ptr noundef %0) #0 {
  %2 = alloca ptr, align 8
  store ptr %0, ptr %2, align 8
  %3 = load ptr, ptr %2, align 8
  %4 = getelementptr inbounds %struct.Vec_Int_t_, ptr %3, i32 0, i32 1
  %5 = load i32, ptr %4, align 4
  ret i32 %5
}

; Function Attrs: nounwind uwtable
define internal i32 @Vec_IntCompareVec(ptr noundef %0, ptr noundef %1) #0 {
  %3 = alloca i32, align 4
  %4 = alloca ptr, align 8
  %5 = alloca ptr, align 8
  store ptr %0, ptr %4, align 8
  store ptr %1, ptr %5, align 8
  %6 = load ptr, ptr %4, align 8
  %7 = icmp eq ptr %6, null
  br i1 %7, label %11, label %8

8:                                                ; preds = %2
  %9 = load ptr, ptr %5, align 8
  %10 = icmp eq ptr %9, null
  br i1 %10, label %11, label %19

11:                                               ; preds = %8, %2
  %12 = load ptr, ptr %4, align 8
  %13 = icmp ne ptr %12, null
  %14 = zext i1 %13 to i32
  %15 = load ptr, ptr %5, align 8
  %16 = icmp ne ptr %15, null
  %17 = zext i1 %16 to i32
  %18 = sub nsw i32 %14, %17
  store i32 %18, ptr %3, align 4
  br label %41

19:                                               ; preds = %8
  %20 = load ptr, ptr %4, align 8
  %21 = call i32 @Vec_IntSize(ptr noundef %20)
  %22 = load ptr, ptr %5, align 8
  %23 = call i32 @Vec_IntSize(ptr noundef %22)
  %24 = icmp ne i32 %21, %23
  br i1 %24, label %25, label %31

25:                                               ; preds = %19
  %26 = load ptr, ptr %4, align 8
  %27 = call i32 @Vec_IntSize(ptr noundef %26)
  %28 = load ptr, ptr %5, align 8
  %29 = call i32 @Vec_IntSize(ptr noundef %28)
  %30 = sub nsw i32 %27, %29
  store i32 %30, ptr %3, align 4
  br label %41

31:                                               ; preds = %19
  %32 = load ptr, ptr %4, align 8
  %33 = call ptr @Vec_IntArray(ptr noundef %32)
  %34 = load ptr, ptr %5, align 8
  %35 = call ptr @Vec_IntArray(ptr noundef %34)
  %36 = load ptr, ptr %4, align 8
  %37 = call i32 @Vec_IntSize(ptr noundef %36)
  %38 = sext i32 %37 to i64
  %39 = mul i64 4, %38
  %40 = call i32 @memcmp(ptr noundef %33, ptr noundef %35, i64 noundef %39) #12
  store i32 %40, ptr %3, align 4
  br label %41

41:                                               ; preds = %31, %25, %11
  %42 = load i32, ptr %3, align 4
  ret i32 %42
}

; Function Attrs: nounwind uwtable
define i32 @Iso_StoCompareVecInt(ptr noundef %0, ptr noundef %1) #0 {
  %3 = alloca ptr, align 8
  %4 = alloca ptr, align 8
  store ptr %0, ptr %3, align 8
  store ptr %1, ptr %4, align 8
  %5 = load ptr, ptr %3, align 8
  %6 = load ptr, ptr %5, align 8
  %7 = load ptr, ptr %4, align 8
  %8 = load ptr, ptr %7, align 8
  %9 = call i32 @Vec_IntCompareVec(ptr noundef %6, ptr noundef %8)
  ret i32 %9
}