; Function Attrs: mustprogress nofree nounwind willreturn memory(read, inaccessiblemem: none) uwtable
define i32 @Iso_StoCompareVecInt(ptr noundef readonly captures(none) %0, ptr noundef readonly captures(none) %1) #7 {
  %3 = load ptr, ptr %0, align 8
  %4 = load ptr, ptr %1, align 8
  %5 = icmp eq ptr %3, null
  %6 = icmp eq ptr %4, null
  %or.cond.i = or i1 %5, %6
  br i1 %or.cond.i, label %7, label %12

7:                                                ; preds = %2
  %8 = icmp ne ptr %3, null
  %9 = zext i1 %8 to i32
  %10 = icmp ne ptr %4, null
  %.neg.i = sext i1 %10 to i32
  %11 = add nsw i32 %.neg.i, %9
  br label %Vec_IntCompareVec.exit

12:                                               ; preds = %2
  %13 = getelementptr i8, ptr %3, i64 4
  %.val17.i = load i32, ptr %13, align 4
  %14 = getelementptr i8, ptr %4, i64 4
  %.val16.i = load i32, ptr %14, align 4
  %.not.i = icmp eq i32 %.val17.i, %.val16.i
  br i1 %.not.i, label %17, label %15

15:                                               ; preds = %12
  %16 = sub nsw i32 %.val17.i, %.val16.i
  br label %Vec_IntCompareVec.exit

17:                                               ; preds = %12
  %18 = getelementptr i8, ptr %3, i64 8
  %.val19.i = load ptr, ptr %18, align 8
  %19 = getelementptr i8, ptr %4, i64 8
  %.val18.i = load ptr, ptr %19, align 8
  %20 = sext i32 %.val17.i to i64
  %21 = shl nsw i64 %20, 2
  %22 = tail call i32 @memcmp(ptr noundef %.val19.i, ptr noundef %.val18.i, i64 noundef %21) #19
  br label %Vec_IntCompareVec.exit

Vec_IntCompareVec.exit:                           ; preds = %7, %15, %17
  %.0.i = phi i32 [ %11, %7 ], [ %16, %15 ], [ %22, %17 ]
  ret i32 %.0.i
}